;
; File generated by cc65 v 2.19 - Git 3d7e388
;
	.fopt		compiler,"cc65 v 2.19 - Git 3d7e388"
	.setcpu		"6502"
	.smart		on
	.autoimport	on
	.case		on
	.debuginfo	off
	.importzp	c_sp, sreg, regsave, regbank
	.importzp	tmp1, tmp2, tmp3, tmp4, ptr1, ptr2, ptr3, ptr4
	.macpack	longbranch
	.export		_g_canvas
	.export		_canvas_clear
	.export		_canvas_fill_demo_pattern
	.export		_canvas_set_pixel
	.export		_canvas_render_full
	.export		_canvas_render_tile

.segment	"BSS"

_g_canvas:
	.res	960,$00

; ---------------------------------------------------------------
; void __near__ canvas_clear (unsigned char color)
; ---------------------------------------------------------------

.segment	"CODE"

.proc	_canvas_clear: near

.segment	"CODE"

;
; void canvas_clear(uint8_t color) {
;
	jsr     pusha
;
; for (y = 0; y < CANVAS_HEIGHT; ++y) {
;
	jsr     decsp2
	lda     #$00
	tay
L000C:	sta     (c_sp),y
	cmp     #$1E
	bcs     L0003
;
; for (x = 0; x < CANVAS_WIDTH; ++x) {
;
	tya
	iny
L000B:	sta     (c_sp),y
	cmp     #$20
	bcs     L0004
;
; g_canvas[y][x] = color;
;
	ldx     #$00
	lda     (c_sp,x)
	jsr     aslax4
	stx     tmp1
	asl     a
	rol     tmp1
	clc
	adc     #<(_g_canvas)
	sta     ptr1
	lda     tmp1
	adc     #>(_g_canvas)
	sta     ptr1+1
	ldy     #$01
	lda     (c_sp),y
	clc
	adc     ptr1
	ldx     ptr1+1
	bcc     L000A
	inx
L000A:	sta     ptr1
	stx     ptr1+1
	iny
	lda     (c_sp),y
	ldy     #$00
	sta     (ptr1),y
;
; for (x = 0; x < CANVAS_WIDTH; ++x) {
;
	iny
	clc
	tya
	adc     (c_sp),y
	jmp     L000B
;
; for (y = 0; y < CANVAS_HEIGHT; ++y) {
;
L0004:	dey
	clc
	lda     #$01
	adc     (c_sp),y
	jmp     L000C
;
; }
;
L0003:	jmp     incsp3

.endproc

; ---------------------------------------------------------------
; void __near__ canvas_fill_demo_pattern (void)
; ---------------------------------------------------------------

.segment	"CODE"

.proc	_canvas_fill_demo_pattern: near

.segment	"CODE"

;
; for (y = 0; y < CANVAS_HEIGHT; ++y) {
;
	jsr     decsp2
	lda     #$00
	tay
L000D:	sta     (c_sp),y
	cmp     #$1E
	bcs     L0003
;
; for (x = 0; x < CANVAS_WIDTH; ++x) {
;
	tya
	iny
L000C:	sta     (c_sp),y
	cmp     #$20
	bcs     L0004
;
; g_canvas[y][x] = (uint8_t)(((x >> 1) + (y >> 1)) & 3u);
;
	ldx     #$00
	lda     (c_sp,x)
	jsr     aslax4
	stx     tmp1
	asl     a
	rol     tmp1
	clc
	adc     #<(_g_canvas)
	sta     ptr1
	lda     tmp1
	adc     #>(_g_canvas)
	sta     ptr1+1
	ldy     #$01
	lda     (c_sp),y
	clc
	adc     ptr1
	ldx     ptr1+1
	bcc     L000A
	inx
L000A:	sta     sreg
	stx     sreg+1
	lda     (c_sp),y
	lsr     a
	sta     ptr1
	dey
	lda     (c_sp),y
	lsr     a
	clc
	adc     ptr1
	and     #$03
	sta     (sreg),y
;
; for (x = 0; x < CANVAS_WIDTH; ++x) {
;
	iny
	clc
	tya
	adc     (c_sp),y
	jmp     L000C
;
; for (y = 0; y < CANVAS_HEIGHT; ++y) {
;
L0004:	dey
	clc
	lda     #$01
	adc     (c_sp),y
	jmp     L000D
;
; }
;
L0003:	jmp     incsp2

.endproc

; ---------------------------------------------------------------
; void __near__ canvas_set_pixel (unsigned char x, unsigned char y, unsigned char color)
; ---------------------------------------------------------------

.segment	"CODE"

.proc	_canvas_set_pixel: near

.segment	"CODE"

;
; void canvas_set_pixel(uint8_t x, uint8_t y, uint8_t color) {
;
	jsr     pusha
;
; if (x < CANVAS_WIDTH && y < CANVAS_HEIGHT) {
;
	ldy     #$02
	lda     (c_sp),y
	cmp     #$20
	bcs     L0002
	dey
	lda     (c_sp),y
	cmp     #$1E
	bcs     L0002
;
; g_canvas[y][x] = color;
;
	ldx     #$00
	lda     (c_sp),y
	jsr     aslax4
	stx     tmp1
	asl     a
	rol     tmp1
	clc
	adc     #<(_g_canvas)
	sta     ptr1
	lda     tmp1
	adc     #>(_g_canvas)
	sta     ptr1+1
	iny
	lda     (c_sp),y
	clc
	adc     ptr1
	ldx     ptr1+1
	bcc     L0006
	inx
L0006:	sta     ptr1
	stx     ptr1+1
	ldy     #$00
	lda     (c_sp),y
	sta     (ptr1),y
;
; }
;
L0002:	jmp     incsp3

.endproc

; ---------------------------------------------------------------
; void __near__ canvas_render_full (void)
; ---------------------------------------------------------------

.segment	"CODE"

.proc	_canvas_render_full: near

.segment	"CODE"

;
; uint16_t addr = 0x2000;
;
	jsr     decsp2
	ldx     #$20
	lda     #$00
	jsr     pushax
;
; PPUADDR = (uint8_t)(addr >> 8);
;
	ldy     #$01
	lda     (c_sp),y
	sta     $2006
;
; PPUADDR = (uint8_t)(addr & 0xFF);
;
	dey
	lda     (c_sp),y
	sta     $2006
;
; for (y = 0; y < CANVAS_HEIGHT; ++y) {
;
	tya
	ldy     #$02
L000B:	sta     (c_sp),y
	cmp     #$1E
	bcs     L0003
;
; for (x = 0; x < CANVAS_WIDTH; ++x) {
;
	lda     #$00
	iny
L000A:	sta     (c_sp),y
	cmp     #$20
	bcs     L0004
;
; uint8_t color = g_canvas[y][x];
;
	dey
	ldx     #$00
	lda     (c_sp),y
	jsr     aslax4
	stx     tmp1
	asl     a
	rol     tmp1
	clc
	adc     #<(_g_canvas)
	sta     ptr1
	lda     tmp1
	adc     #>(_g_canvas)
	sta     ptr1+1
	iny
	lda     (c_sp),y
	tay
	lda     (ptr1),y
	jsr     pusha
;
; uint8_t tile  = color;  /* 0..3 -> tile #0..3 */
;
	ldy     #$00
	lda     (c_sp),y
	jsr     pusha
;
; PPUDATA = tile;
;
	ldy     #$00
	lda     (c_sp),y
	sta     $2007
;
; }
;
	jsr     incsp2
;
; for (x = 0; x < CANVAS_WIDTH; ++x) {
;
	ldy     #$03
	clc
	lda     #$01
	adc     (c_sp),y
	jmp     L000A
;
; for (y = 0; y < CANVAS_HEIGHT; ++y) {
;
L0004:	dey
	clc
	lda     #$01
	adc     (c_sp),y
	jmp     L000B
;
; }
;
L0003:	jmp     incsp4

.endproc

; ---------------------------------------------------------------
; void __near__ canvas_render_tile (unsigned char x, unsigned char y)
; ---------------------------------------------------------------

.segment	"CODE"

.proc	_canvas_render_tile: near

.segment	"CODE"

;
; void canvas_render_tile(uint8_t x, uint8_t y) {
;
	jsr     pusha
;
; if (x >= CANVAS_WIDTH || y >= CANVAS_HEIGHT) {
;
	jsr     decsp2
	ldy     #$03
	lda     (c_sp),y
	cmp     #$20
	bcs     L0001
	dey
	lda     (c_sp),y
	cmp     #$1E
	bcs     L0001
	ldx     #$00
;
; addr = 0x2000 + (uint16_t)y * 32u + (uint16_t)x;
;
	lda     (c_sp),y
	jsr     shlax4
	stx     tmp1
	asl     a
	rol     tmp1
	sta     ptr1
	lda     tmp1
	clc
	adc     #$20
	sta     ptr1+1
	iny
	lda     (c_sp),y
	clc
	adc     ptr1
	ldx     ptr1+1
	bcc     L0005
	inx
L0005:	jsr     stax0sp
;
; PPUADDR = (uint8_t)(addr >> 8);
;
	ldy     #$01
	lda     (c_sp),y
	sta     $2006
;
; PPUADDR = (uint8_t)(addr & 0xFF);
;
	dey
	lda     (c_sp),y
	sta     $2006
;
; PPUDATA = g_canvas[y][x];   /* tile index == color index (0..3) */
;
	ldy     #$02
	ldx     #$00
	lda     (c_sp),y
	jsr     aslax4
	stx     tmp1
	asl     a
	rol     tmp1
	clc
	adc     #<(_g_canvas)
	sta     ptr1
	lda     tmp1
	adc     #>(_g_canvas)
	sta     ptr1+1
	iny
	lda     (c_sp),y
	tay
	lda     (ptr1),y
	sta     $2007
;
; }
;
L0001:	jmp     incsp4

.endproc

