;
; File generated by cc65 v 2.19 - Git 3d7e388
;
	.fopt		compiler,"cc65 v 2.19 - Git 3d7e388"
	.setcpu		"6502"
	.smart		on
	.autoimport	on
	.case		on
	.debuginfo	off
	.importzp	c_sp, sreg, regsave, regbank
	.importzp	tmp1, tmp2, tmp3, tmp4, ptr1, ptr2, ptr3, ptr4
	.macpack	longbranch
	.export		_input_update
	.export		_input_get_buttons
	.export		_input_get_prev_buttons
	.export		_input_pressed
	.export		_input_held

.segment	"DATA"

_s_buttons:
	.byte	$00
_s_prev_buttons:
	.byte	$00

; ---------------------------------------------------------------
; void __near__ input_update (void)
; ---------------------------------------------------------------

.segment	"CODE"

.proc	_input_update: near

.segment	"CODE"

;
; s_prev_buttons = s_buttons;
;
	lda     _s_buttons
	sta     _s_prev_buttons
;
; s_buttons = read_joy1_raw();
;
	jsr     _read_joy1_raw
	sta     _s_buttons
;
; }
;
	rts

.endproc

; ---------------------------------------------------------------
; unsigned char __near__ input_get_buttons (void)
; ---------------------------------------------------------------

.segment	"CODE"

.proc	_input_get_buttons: near

.segment	"CODE"

;
; return s_buttons;
;
	ldx     #$00
	lda     _s_buttons
;
; }
;
	rts

.endproc

; ---------------------------------------------------------------
; unsigned char __near__ input_get_prev_buttons (void)
; ---------------------------------------------------------------

.segment	"CODE"

.proc	_input_get_prev_buttons: near

.segment	"CODE"

;
; return s_prev_buttons;
;
	ldx     #$00
	lda     _s_prev_buttons
;
; }
;
	rts

.endproc

; ---------------------------------------------------------------
; unsigned char __near__ input_pressed (unsigned char mask)
; ---------------------------------------------------------------

.segment	"CODE"

.proc	_input_pressed: near

.segment	"CODE"

;
; uint8_t input_pressed(uint8_t mask) {
;
	jsr     pusha
;
; return (uint8_t)((s_buttons & mask) && !(s_prev_buttons & mask));
;
	lda     _s_buttons
	ldx     #$00
	ldy     #$00
	and     (c_sp),y
	beq     L0008
	lda     _s_prev_buttons
	and     (c_sp),y
	beq     L0007
	txa
	jmp     incsp1
L0007:	lda     #$01
;
; }
;
L0008:	jmp     incsp1

.endproc

; ---------------------------------------------------------------
; unsigned char __near__ input_held (unsigned char mask)
; ---------------------------------------------------------------

.segment	"CODE"

.proc	_input_held: near

.segment	"CODE"

;
; uint8_t input_held(uint8_t mask) {
;
	jsr     pusha
;
; return (uint8_t)(s_buttons & mask);
;
	lda     _s_buttons
	ldy     #$00
	and     (c_sp),y
	ldx     #$00
;
; }
;
	jmp     incsp1

.endproc

; ---------------------------------------------------------------
; unsigned char __near__ read_joy1_raw (void)
; ---------------------------------------------------------------

.segment	"CODE"

.proc	_read_joy1_raw: near

.segment	"CODE"

;
; uint8_t buttons = 0;
;
	jsr     decsp1
	lda     #$00
	jsr     pusha
;
; JOY1 = 1;
;
	lda     #$01
	sta     $4016
;
; JOY1 = 0;
;
	lda     #$00
	sta     $4016
;
; for (i = 0; i < 8u; ++i) {
;
	ldy     #$01
L0007:	sta     (c_sp),y
	cmp     #$08
	bcs     L0003
;
; if (JOY1 & 1) {
;
	lda     $4016
	and     #$01
	beq     L0009
;
; buttons |= (1u << i);
;
	ldy     #$00
	lda     (c_sp),y
	sta     ptr1
	iny
	lda     (c_sp),y
	tay
	lda     #$01
L000A:	asl     a
	dey
	bpl     L000A
	ror     a
	ora     ptr1
	ldy     #$00
	sta     (c_sp),y
;
; for (i = 0; i < 8u; ++i) {
;
	iny
L0009:	clc
	lda     #$01
	adc     (c_sp),y
	jmp     L0007
;
; return buttons;
;
L0003:	ldx     #$00
	lda     (c_sp,x)
;
; }
;
	jmp     incsp2

.endproc

