;
; File generated by cc65 v 2.19 - Git 3d7e388
;
	.fopt		compiler,"cc65 v 2.19 - Git 3d7e388"
	.setcpu		"6502"
	.smart		on
	.autoimport	on
	.case		on
	.debuginfo	off
	.importzp	c_sp, sreg, regsave, regbank
	.importzp	tmp1, tmp2, tmp3, tmp4, ptr1, ptr2, ptr3, ptr4
	.macpack	longbranch
	.forceimport	__STARTUP__
	.import		_ppu_wait_vblank
	.import		_ppu_init
	.import		_ppu_load_bg_palette
	.import		_ppu_clear_oam
	.import		_ppu_draw_cursor_sprite
	.import		_input_update
	.import		_input_pressed
	.import		_g_canvas
	.import		_canvas_clear
	.import		_canvas_set_pixel
	.import		_canvas_render_full
	.import		_canvas_render_tile
	.export		_main

.segment	"RODATA"

_s_bg_palette:
	.byte	$0F
	.byte	$01
	.byte	$11
	.byte	$21
	.byte	$0F
	.byte	$06
	.byte	$16
	.byte	$26
	.byte	$0F
	.byte	$09
	.byte	$19
	.byte	$29
	.byte	$0F
	.byte	$0A
	.byte	$1A
	.byte	$2A

; ---------------------------------------------------------------
; void __near__ ui_update_palette_bar (unsigned char current_color)
; ---------------------------------------------------------------

.segment	"CODE"

.proc	_ui_update_palette_bar: near

.segment	"CODE"

;
; static void ui_update_palette_bar(uint8_t current_color) {
;
	jsr     pusha
;
; for (x = 0; x < 4u; ++x) {
;
	jsr     decsp1
	lda     #$00
	tay
L000D:	sta     (c_sp),y
	cmp     #$04
	bcs     L000F
;
; g_canvas[UI_PALETTE_ROW][x] = x;        /* tile index 0..3 */
;
	lda     (c_sp),y
	tax
	lda     (c_sp),y
	sta     _g_canvas,x
;
; canvas_render_tile(x, UI_PALETTE_ROW);  /* push to VRAM */
;
	lda     (c_sp),y
	jsr     pusha
	lda     #$00
	jsr     _canvas_render_tile
;
; for (x = 0; x < 4u; ++x) {
;
	ldy     #$00
	clc
	lda     #$01
	adc     (c_sp),y
	jmp     L000D
;
; for (x = 0; x < 4u; ++x) {
;
L000F:	tya
L000E:	sta     (c_sp),y
	cmp     #$04
	bcs     L0008
;
; g_canvas[UI_HIGHLIGHT_ROW][x] = 0;
;
	lda     (c_sp),y
	tay
	lda     #$00
	sta     _g_canvas+32,y
;
; canvas_render_tile(x, UI_HIGHLIGHT_ROW);
;
	tay
	lda     (c_sp),y
	jsr     pusha
	lda     #$01
	jsr     _canvas_render_tile
;
; for (x = 0; x < 4u; ++x) {
;
	ldy     #$00
	clc
	lda     #$01
	adc     (c_sp),y
	jmp     L000E
;
; g_canvas[UI_HIGHLIGHT_ROW][current_color] = current_color;
;
L0008:	iny
	lda     (c_sp),y
	tax
	lda     (c_sp),y
	sta     _g_canvas+32,x
;
; canvas_render_tile(current_color, UI_HIGHLIGHT_ROW);
;
	lda     (c_sp),y
	jsr     pusha
	lda     #$01
	jsr     _canvas_render_tile
;
; }
;
	jmp     incsp2

.endproc

; ---------------------------------------------------------------
; void __near__ main (void)
; ---------------------------------------------------------------

.segment	"CODE"

.proc	_main: near

.segment	"CODE"

;
; cursor_x = CANVAS_WIDTH  / 2;
;
	jsr     decsp3
	lda     #$10
	ldy     #$02
	sta     (c_sp),y
;
; cursor_y = (CANVAS_HEIGHT + UI_FIRST_DRAW_ROW) / 2;
;
	dey
	sta     (c_sp),y
;
; current_color = 1;
;
	tya
	dey
	sta     (c_sp),y
;
; ppu_init();
;
	jsr     _ppu_init
;
; ppu_wait_vblank();
;
	jsr     _ppu_wait_vblank
;
; ppu_load_bg_palette(s_bg_palette, 16);
;
	lda     #<(_s_bg_palette)
	ldx     #>(_s_bg_palette)
	jsr     pushax
	lda     #$10
	jsr     _ppu_load_bg_palette
;
; canvas_clear(0);
;
	lda     #$00
	jsr     _canvas_clear
;
; current_color = 1;
;
	lda     #$01
	ldy     #$00
	sta     (c_sp),y
;
; ui_update_palette_bar(current_color);
;
	jsr     _ui_update_palette_bar
;
; canvas_render_full();
;
	jsr     _canvas_render_full
;
; ppu_clear_oam();
;
	jsr     _ppu_clear_oam
;
; uint8_t sprite_x = (uint8_t)(cursor_x * 8u);
;
	ldy     #$02
	lda     (c_sp),y
	asl     a
	asl     a
	asl     a
	jsr     pusha
;
; uint8_t sprite_y = (uint8_t)(cursor_y * 8u + 1u);
;
	ldy     #$02
	lda     (c_sp),y
	asl     a
	asl     a
	asl     a
	clc
	adc     #$01
	jsr     pusha
;
; ppu_draw_cursor_sprite(3, sprite_x, sprite_y);
;
	jsr     decsp2
	lda     #$03
	ldy     #$01
	sta     (c_sp),y
	tay
	lda     (c_sp),y
	ldy     #$00
	sta     (c_sp),y
	ldy     #$02
	lda     (c_sp),y
	jsr     _ppu_draw_cursor_sprite
;
; }
;
	jsr     incsp2
;
; PPUCTRL = 0x00;
;
	lda     #$00
	sta     $2000
;
; PPUMASK = 0x18;   /* bit3=BG, bit4=sprites */
;
	lda     #$18
	sta     $2001
;
; ppu_wait_vblank();
;
L0006:	jsr     decsp2
	jsr     _ppu_wait_vblank
;
; input_update();
;
	jsr     _input_update
;
; if (input_pressed(BTN_LEFT)) {
;
	lda     #$40
	jsr     _input_pressed
	tax
	beq     L0014
;
; if (cursor_x > 0) cursor_x--;
;
	ldy     #$04
	lda     (c_sp),y
	beq     L0014
	sec
	sbc     #$01
	sta     (c_sp),y
;
; if (input_pressed(BTN_RIGHT)) {
;
L0014:	lda     #$80
	jsr     _input_pressed
	tax
	beq     L0015
;
; if (cursor_x < (CANVAS_WIDTH - 1u)) cursor_x++;
;
	ldy     #$04
	lda     (c_sp),y
	cmp     #$1F
	bcs     L0015
	clc
	lda     #$01
	adc     (c_sp),y
	sta     (c_sp),y
;
; if (input_pressed(BTN_UP)) {
;
L0015:	lda     #$10
	jsr     _input_pressed
	tax
	beq     L0016
;
; if (cursor_y > UI_FIRST_DRAW_ROW) cursor_y--;
;
	ldy     #$03
	lda     (c_sp),y
	cmp     #$03
	bcc     L0016
	sec
	sbc     #$01
	sta     (c_sp),y
;
; if (input_pressed(BTN_DOWN)) {
;
L0016:	lda     #$20
	jsr     _input_pressed
	tax
	beq     L0017
;
; if (cursor_y < (CANVAS_HEIGHT - 1u)) cursor_y++;
;
	ldy     #$03
	lda     (c_sp),y
	cmp     #$1D
	bcs     L0017
	clc
	lda     #$01
	adc     (c_sp),y
	sta     (c_sp),y
;
; if (input_pressed(BTN_SELECT)) {
;
L0017:	lda     #$04
	jsr     _input_pressed
	tax
	beq     L001A
;
; current_color++;
;
	ldy     #$02
	clc
	lda     #$01
	adc     (c_sp),y
	sta     (c_sp),y
;
; if (current_color > 3u) {
;
	cmp     #$04
	bcc     L0019
;
; current_color = 1u;   /* wrap around */
;
	lda     #$01
	sta     (c_sp),y
;
; ui_update_palette_bar(current_color);
;
L0019:	lda     (c_sp),y
	jsr     _ui_update_palette_bar
;
; if (input_pressed(BTN_A)) {
;
L001A:	lda     #$01
	jsr     _input_pressed
	tax
	beq     L001B
;
; canvas_set_pixel(cursor_x, cursor_y, current_color);
;
	jsr     decsp2
	ldy     #$06
	lda     (c_sp),y
	ldy     #$01
	sta     (c_sp),y
	ldy     #$05
	lda     (c_sp),y
	ldy     #$00
	sta     (c_sp),y
	ldy     #$04
	lda     (c_sp),y
	jsr     _canvas_set_pixel
;
; canvas_render_tile(cursor_x, cursor_y);
;
	ldy     #$04
	lda     (c_sp),y
	jsr     pusha
	ldy     #$04
	lda     (c_sp),y
	jsr     _canvas_render_tile
;
; if (input_pressed(BTN_B)) {
;
L001B:	lda     #$02
	jsr     _input_pressed
	tax
	beq     L001D
;
; canvas_set_pixel(cursor_x, cursor_y, 0);
;
	jsr     decsp2
	ldy     #$06
	lda     (c_sp),y
	ldy     #$01
	sta     (c_sp),y
	ldy     #$05
	lda     (c_sp),y
	ldy     #$00
	sta     (c_sp),y
	tya
	jsr     _canvas_set_pixel
;
; canvas_render_tile(cursor_x, cursor_y);
;
	ldy     #$04
	lda     (c_sp),y
	jsr     pusha
	ldy     #$04
	lda     (c_sp),y
	jsr     _canvas_render_tile
;
; PPUSCROLL = 0;
;
	lda     #$00
L001D:	sta     $2005
;
; PPUSCROLL = 0;
;
	sta     $2005
;
; sprite_x = (uint8_t)(cursor_x * 8u);
;
	ldy     #$04
	lda     (c_sp),y
	asl     a
	asl     a
	asl     a
	ldy     #$01
	sta     (c_sp),y
;
; sprite_y = (uint8_t)(cursor_y * 8u + 1u);
;
	ldy     #$03
	lda     (c_sp),y
	asl     a
	asl     a
	asl     a
	clc
	adc     #$01
	ldy     #$00
	sta     (c_sp),y
;
; ppu_draw_cursor_sprite(3, sprite_x, sprite_y);
;
	jsr     decsp2
	lda     #$03
	iny
	sta     (c_sp),y
	tay
	lda     (c_sp),y
	ldy     #$00
	sta     (c_sp),y
	ldy     #$02
	lda     (c_sp),y
	jsr     _ppu_draw_cursor_sprite
;
; }
;
	jsr     incsp2
	jmp     L0006

.endproc

